; Function Attrs: nounwind uwtable
define hidden void @zif_tanh(ptr noundef %0, ptr nocapture noundef writeonly %1) local_unnamed_addr #0 {
  %3 = alloca double, align 8
  %4 = getelementptr inbounds i8, ptr %0, i64 44
  %5 = load i32, ptr %4, align 4
  %cond = icmp eq i32 %5, 1
  br i1 %cond, label %7, label %6

6:                                                ; preds = %2
  tail call void @zend_wrong_parameters_count_error(i32 noundef 1, i32 noundef 1) #15
  br label %.thread79

7:                                                ; preds = %2
  %8 = getelementptr inbounds i8, ptr %0, i64 80
  %9 = getelementptr inbounds i8, ptr %0, i64 88
  %10 = load i8, ptr %9, align 8
  %11 = icmp eq i8 %10, 5
  br i1 %11, label %.thread72, label %12

12:                                               ; preds = %7
  %13 = call zeroext i1 @zend_parse_arg_double_slow(ptr noundef nonnull %8, ptr noundef nonnull %3, i32 noundef 1) #15
  %.fr = freeze i1 %13
  br i1 %.fr, label %.thread72, label %.thread79

.thread79:                                        ; preds = %12, %6
  %.04888 = phi i32 [ 1, %6 ], [ 9, %12 ]
  %.04987 = phi i32 [ 0, %6 ], [ 1, %12 ]
  %.05086 = phi i32 [ 0, %6 ], [ 20, %12 ]
  %.05185 = phi ptr [ null, %6 ], [ %8, %12 ]
  call void @zend_wrong_parameter_error(i32 noundef %.04888, i32 noundef %.04987, ptr noundef null, i32 noundef %.05086, ptr noundef %.05185) #15
  br label %17

.thread72:                                        ; preds = %12, %7
  %.in = phi ptr [ %8, %7 ], [ %3, %12 ]
  %14 = load double, ptr %.in, align 8
  %15 = call double @tanh(double noundef %14) #15
  store double %15, ptr %1, align 8
  %16 = getelementptr inbounds i8, ptr %1, i64 8
  store i32 5, ptr %16, align 8
  br label %17

17:                                               ; preds = %.thread72, %.thread79
  ret void
}